; ModuleID = '51/1084.c'
source_filename = "51/1084.c"
target datalayout = "e-m:e-p270:32:32-p271:32:32-p272:64:64-i64:64-f80:128-n8:16:32:64-S128"
target triple = "x86_64-pc-linux-gnu"

@.str = private unnamed_addr constant [3 x i8] c"%d\00", align 1
@.str.1 = private unnamed_addr constant [3 x i8] c"%s\00", align 1
@.str.2 = private unnamed_addr constant [3 x i8] c"NO\00", align 1
@.str.3 = private unnamed_addr constant [4 x i8] c"%d\0A\00", align 1
@.str.4 = private unnamed_addr constant [3 x i8] c"%c\00", align 1
@.str.5 = private unnamed_addr constant [4 x i8] c"%c\0A\00", align 1

; Function Attrs: noinline nounwind uwtable
define dso_local i32 @main() #0 {
  %1 = alloca i32, align 4
  %2 = alloca i32, align 4
  %3 = alloca i32, align 4
  %4 = alloca [500 x i32], align 16
  %5 = alloca i32, align 4
  %6 = alloca i32, align 4
  %7 = alloca [500 x i8], align 16
  %8 = alloca [500 x i8], align 16
  %9 = alloca [500 x i8], align 16
  %10 = alloca i32, align 4
  %11 = alloca i32, align 4
  %12 = alloca i32, align 4
  %13 = alloca i32, align 4
  %14 = alloca i32, align 4
  %15 = alloca i32, align 4
  %16 = alloca i32, align 4
  store i32 0, i32* %1, align 4
  store i32 0, i32* %5, align 4
  %17 = call i32 (i8*, ...) @__isoc99_scanf(i8* getelementptr inbounds ([3 x i8], [3 x i8]* @.str, i64 0, i64 0), i32* %2)
  store i32 0, i32* %6, align 4
  br label %18

18:                                               ; preds = %25, %0
  %19 = load i32, i32* %6, align 4
  %20 = icmp slt i32 %19, 500
  br i1 %20, label %21, label %28

21:                                               ; preds = %18
  %22 = load i32, i32* %6, align 4
  %23 = sext i32 %22 to i64
  %24 = getelementptr inbounds [500 x i32], [500 x i32]* %4, i64 0, i64 %23
  store i32 0, i32* %24, align 4
  br label %25

25:                                               ; preds = %21
  %26 = load i32, i32* %6, align 4
  %27 = add nsw i32 %26, 1
  store i32 %27, i32* %6, align 4
  br label %18

28:                                               ; preds = %18
  %29 = getelementptr inbounds [500 x i8], [500 x i8]* %7, i64 0, i64 0
  %30 = call i32 (i8*, ...) @__isoc99_scanf(i8* getelementptr inbounds ([3 x i8], [3 x i8]* @.str.1, i64 0, i64 0), i8* %29)
  %31 = getelementptr inbounds [500 x i8], [500 x i8]* %7, i64 0, i64 0
  %32 = call i64 @strlen(i8* %31) #3
  %33 = trunc i64 %32 to i32
  store i32 %33, i32* %3, align 4
  store i32 0, i32* %10, align 4
  br label %34

34:                                               ; preds = %106, %28
  %35 = load i32, i32* %10, align 4
  %36 = load i32, i32* %3, align 4
  %37 = load i32, i32* %2, align 4
  %38 = sub nsw i32 %36, %37
  %39 = icmp sle i32 %35, %38
  br i1 %39, label %40, label %109

40:                                               ; preds = %34
  store i32 0, i32* %11, align 4
  br label %41

41:                                               ; preds = %55, %40
  %42 = load i32, i32* %11, align 4
  %43 = load i32, i32* %2, align 4
  %44 = icmp slt i32 %42, %43
  br i1 %44, label %45, label %58

45:                                               ; preds = %41
  %46 = load i32, i32* %10, align 4
  %47 = load i32, i32* %11, align 4
  %48 = add nsw i32 %46, %47
  %49 = sext i32 %48 to i64
  %50 = getelementptr inbounds [500 x i8], [500 x i8]* %7, i64 0, i64 %49
  %51 = load i8, i8* %50, align 1
  %52 = load i32, i32* %11, align 4
  %53 = sext i32 %52 to i64
  %54 = getelementptr inbounds [500 x i8], [500 x i8]* %8, i64 0, i64 %53
  store i8 %51, i8* %54, align 1
  br label %55

55:                                               ; preds = %45
  %56 = load i32, i32* %11, align 4
  %57 = add nsw i32 %56, 1
  store i32 %57, i32* %11, align 4
  br label %41

58:                                               ; preds = %41
  %59 = load i32, i32* %2, align 4
  %60 = sext i32 %59 to i64
  %61 = getelementptr inbounds [500 x i8], [500 x i8]* %8, i64 0, i64 %60
  store i8 0, i8* %61, align 1
  %62 = load i32, i32* %10, align 4
  store i32 %62, i32* %12, align 4
  br label %63

63:                                               ; preds = %102, %58
  %64 = load i32, i32* %12, align 4
  %65 = load i32, i32* %3, align 4
  %66 = load i32, i32* %2, align 4
  %67 = sub nsw i32 %65, %66
  %68 = icmp sle i32 %64, %67
  br i1 %68, label %69, label %105

69:                                               ; preds = %63
  store i32 0, i32* %13, align 4
  br label %70

70:                                               ; preds = %84, %69
  %71 = load i32, i32* %13, align 4
  %72 = load i32, i32* %2, align 4
  %73 = icmp slt i32 %71, %72
  br i1 %73, label %74, label %87

74:                                               ; preds = %70
  %75 = load i32, i32* %12, align 4
  %76 = load i32, i32* %13, align 4
  %77 = add nsw i32 %75, %76
  %78 = sext i32 %77 to i64
  %79 = getelementptr inbounds [500 x i8], [500 x i8]* %7, i64 0, i64 %78
  %80 = load i8, i8* %79, align 1
  %81 = load i32, i32* %13, align 4
  %82 = sext i32 %81 to i64
  %83 = getelementptr inbounds [500 x i8], [500 x i8]* %9, i64 0, i64 %82
  store i8 %80, i8* %83, align 1
  br label %84

84:                                               ; preds = %74
  %85 = load i32, i32* %13, align 4
  %86 = add nsw i32 %85, 1
  store i32 %86, i32* %13, align 4
  br label %70

87:                                               ; preds = %70
  %88 = load i32, i32* %2, align 4
  %89 = sext i32 %88 to i64
  %90 = getelementptr inbounds [500 x i8], [500 x i8]* %9, i64 0, i64 %89
  store i8 0, i8* %90, align 1
  %91 = getelementptr inbounds [500 x i8], [500 x i8]* %8, i64 0, i64 0
  %92 = getelementptr inbounds [500 x i8], [500 x i8]* %9, i64 0, i64 0
  %93 = call i32 @strcmp(i8* %91, i8* %92) #3
  %94 = icmp eq i32 %93, 0
  br i1 %94, label %95, label %101

95:                                               ; preds = %87
  %96 = load i32, i32* %10, align 4
  %97 = sext i32 %96 to i64
  %98 = getelementptr inbounds [500 x i32], [500 x i32]* %4, i64 0, i64 %97
  %99 = load i32, i32* %98, align 4
  %100 = add nsw i32 %99, 1
  store i32 %100, i32* %98, align 4
  br label %101

101:                                              ; preds = %95, %87
  br label %102

102:                                              ; preds = %101
  %103 = load i32, i32* %12, align 4
  %104 = add nsw i32 %103, 1
  store i32 %104, i32* %12, align 4
  br label %63

105:                                              ; preds = %63
  br label %106

106:                                              ; preds = %105
  %107 = load i32, i32* %10, align 4
  %108 = add nsw i32 %107, 1
  store i32 %108, i32* %10, align 4
  br label %34

109:                                              ; preds = %34
  store i32 0, i32* %14, align 4
  br label %110

110:                                              ; preds = %129, %109
  %111 = load i32, i32* %14, align 4
  %112 = load i32, i32* %3, align 4
  %113 = load i32, i32* %2, align 4
  %114 = sub nsw i32 %112, %113
  %115 = icmp sle i32 %111, %114
  br i1 %115, label %116, label %132

116:                                              ; preds = %110
  %117 = load i32, i32* %14, align 4
  %118 = sext i32 %117 to i64
  %119 = getelementptr inbounds [500 x i32], [500 x i32]* %4, i64 0, i64 %118
  %120 = load i32, i32* %119, align 4
  %121 = load i32, i32* %5, align 4
  %122 = sext i32 %121 to i64
  %123 = getelementptr inbounds [500 x i32], [500 x i32]* %4, i64 0, i64 %122
  %124 = load i32, i32* %123, align 4
  %125 = icmp sgt i32 %120, %124
  br i1 %125, label %126, label %128

126:                                              ; preds = %116
  %127 = load i32, i32* %14, align 4
  store i32 %127, i32* %5, align 4
  br label %128

128:                                              ; preds = %126, %116
  br label %129

129:                                              ; preds = %128
  %130 = load i32, i32* %14, align 4
  %131 = add nsw i32 %130, 1
  store i32 %131, i32* %14, align 4
  br label %110

132:                                              ; preds = %110
  %133 = load i32, i32* %5, align 4
  %134 = sext i32 %133 to i64
  %135 = getelementptr inbounds [500 x i32], [500 x i32]* %4, i64 0, i64 %134
  %136 = load i32, i32* %135, align 4
  %137 = icmp eq i32 %136, 1
  br i1 %137, label %138, label %140

138:                                              ; preds = %132
  %139 = call i32 (i8*, ...) @printf(i8* getelementptr inbounds ([3 x i8], [3 x i8]* @.str.2, i64 0, i64 0))
  br label %200

140:                                              ; preds = %132
  %141 = load i32, i32* %5, align 4
  %142 = sext i32 %141 to i64
  %143 = getelementptr inbounds [500 x i32], [500 x i32]* %4, i64 0, i64 %142
  %144 = load i32, i32* %143, align 4
  %145 = call i32 (i8*, ...) @printf(i8* getelementptr inbounds ([4 x i8], [4 x i8]* @.str.3, i64 0, i64 0), i32 %144)
  store i32 0, i32* %15, align 4
  br label %146

146:                                              ; preds = %196, %140
  %147 = load i32, i32* %15, align 4
  %148 = load i32, i32* %3, align 4
  %149 = load i32, i32* %2, align 4
  %150 = sub nsw i32 %148, %149
  %151 = icmp sle i32 %147, %150
  br i1 %151, label %152, label %199

152:                                              ; preds = %146
  %153 = load i32, i32* %15, align 4
  %154 = sext i32 %153 to i64
  %155 = getelementptr inbounds [500 x i32], [500 x i32]* %4, i64 0, i64 %154
  %156 = load i32, i32* %155, align 4
  %157 = load i32, i32* %5, align 4
  %158 = sext i32 %157 to i64
  %159 = getelementptr inbounds [500 x i32], [500 x i32]* %4, i64 0, i64 %158
  %160 = load i32, i32* %159, align 4
  %161 = icmp eq i32 %156, %160
  br i1 %161, label %162, label %195

162:                                              ; preds = %152
  store i32 0, i32* %16, align 4
  br label %163

163:                                              ; preds = %191, %162
  %164 = load i32, i32* %16, align 4
  %165 = load i32, i32* %2, align 4
  %166 = icmp slt i32 %164, %165
  br i1 %166, label %167, label %194

167:                                              ; preds = %163
  %168 = load i32, i32* %16, align 4
  %169 = load i32, i32* %2, align 4
  %170 = sub nsw i32 %169, 1
  %171 = icmp slt i32 %168, %170
  br i1 %171, label %172, label %181

172:                                              ; preds = %167
  %173 = load i32, i32* %15, align 4
  %174 = load i32, i32* %16, align 4
  %175 = add nsw i32 %173, %174
  %176 = sext i32 %175 to i64
  %177 = getelementptr inbounds [500 x i8], [500 x i8]* %7, i64 0, i64 %176
  %178 = load i8, i8* %177, align 1
  %179 = sext i8 %178 to i32
  %180 = call i32 (i8*, ...) @printf(i8* getelementptr inbounds ([3 x i8], [3 x i8]* @.str.4, i64 0, i64 0), i32 %179)
  br label %190

181:                                              ; preds = %167
  %182 = load i32, i32* %15, align 4
  %183 = load i32, i32* %16, align 4
  %184 = add nsw i32 %182, %183
  %185 = sext i32 %184 to i64
  %186 = getelementptr inbounds [500 x i8], [500 x i8]* %7, i64 0, i64 %185
  %187 = load i8, i8* %186, align 1
  %188 = sext i8 %187 to i32
  %189 = call i32 (i8*, ...) @printf(i8* getelementptr inbounds ([4 x i8], [4 x i8]* @.str.5, i64 0, i64 0), i32 %188)
  br label %190

190:                                              ; preds = %181, %172
  br label %191

191:                                              ; preds = %190
  %192 = load i32, i32* %16, align 4
  %193 = add nsw i32 %192, 1
  store i32 %193, i32* %16, align 4
  br label %163

194:                                              ; preds = %163
  br label %195

195:                                              ; preds = %194, %152
  br label %196

196:                                              ; preds = %195
  %197 = load i32, i32* %15, align 4
  %198 = add nsw i32 %197, 1
  store i32 %198, i32* %15, align 4
  br label %146

199:                                              ; preds = %146
  br label %200

200:                                              ; preds = %199, %138
  %201 = load i32, i32* %1, align 4
  ret i32 %201
}

declare dso_local i32 @__isoc99_scanf(i8*, ...) #1

; Function Attrs: nounwind readonly
declare dso_local i64 @strlen(i8*) #2

; Function Attrs: nounwind readonly
declare dso_local i32 @strcmp(i8*, i8*) #2

declare dso_local i32 @printf(i8*, ...) #1


!llvm.module.flags = !{!0}
!llvm.ident = !{!1}

!0 = !{i32 1, !"wchar_size", i32 4}
!1 = !{!"clang version 10.0.0-4ubuntu1 "}
